; ModuleID = '7/71.c'
source_filename = "7/71.c"
target datalayout = "e-m:e-p270:32:32-p271:32:32-p272:64:64-i64:64-f80:128-n8:16:32:64-S128"
target triple = "x86_64-pc-linux-gnu"

@.str = private unnamed_addr constant [3 x i8] c"%s\00", align 1
@.str.1 = private unnamed_addr constant [3 x i8] c"%c\00", align 1

; Function Attrs: noinline nounwind uwtable
define dso_local i32 @main() #0 {
  %1 = alloca i32, align 4
  %2 = alloca [256 x i8], align 16
  %3 = alloca [256 x i8], align 16
  %4 = alloca [256 x i8], align 16
  %5 = alloca i32, align 4
  %6 = alloca i32, align 4
  %7 = alloca i32, align 4
  %8 = alloca i32, align 4
  %9 = alloca i32, align 4
  store i32 0, i32* %1, align 4
  %10 = getelementptr inbounds [256 x i8], [256 x i8]* %2, i64 0, i64 0
  %11 = call i32 (i8*, ...) bitcast (i32 (...)* @gets to i32 (i8*, ...)*)(i8* %10)
  %12 = getelementptr inbounds [256 x i8], [256 x i8]* %3, i64 0, i64 0
  %13 = call i32 (i8*, ...) bitcast (i32 (...)* @gets to i32 (i8*, ...)*)(i8* %12)
  %14 = getelementptr inbounds [256 x i8], [256 x i8]* %4, i64 0, i64 0
  %15 = call i32 (i8*, ...) bitcast (i32 (...)* @gets to i32 (i8*, ...)*)(i8* %14)
  %16 = getelementptr inbounds [256 x i8], [256 x i8]* %2, i64 0, i64 0
  %17 = call i64 @strlen(i8* %16) #3
  %18 = trunc i64 %17 to i32
  store i32 %18, i32* %8, align 4
  %19 = getelementptr inbounds [256 x i8], [256 x i8]* %3, i64 0, i64 0
  %20 = call i64 @strlen(i8* %19) #3
  %21 = trunc i64 %20 to i32
  store i32 %21, i32* %9, align 4
  store i32 0, i32* %5, align 4
  br label %22

22:                                               ; preds = %76, %0
  %23 = load i32, i32* %5, align 4
  %24 = load i32, i32* %8, align 4
  %25 = load i32, i32* %9, align 4
  %26 = sub nsw i32 %24, %25
  %27 = icmp sle i32 %23, %26
  br i1 %27, label %28, label %79

28:                                               ; preds = %22
  store i32 0, i32* %6, align 4
  br label %29

29:                                               ; preds = %49, %28
  %30 = load i32, i32* %6, align 4
  %31 = load i32, i32* %9, align 4
  %32 = icmp slt i32 %30, %31
  br i1 %32, label %33, label %52

33:                                               ; preds = %29
  %34 = load i32, i32* %5, align 4
  %35 = load i32, i32* %6, align 4
  %36 = add nsw i32 %34, %35
  %37 = sext i32 %36 to i64
  %38 = getelementptr inbounds [256 x i8], [256 x i8]* %2, i64 0, i64 %37
  %39 = load i8, i8* %38, align 1
  %40 = sext i8 %39 to i32
  %41 = load i32, i32* %6, align 4
  %42 = sext i32 %41 to i64
  %43 = getelementptr inbounds [256 x i8], [256 x i8]* %3, i64 0, i64 %42
  %44 = load i8, i8* %43, align 1
  %45 = sext i8 %44 to i32
  %46 = icmp ne i32 %40, %45
  br i1 %46, label %47, label %48

47:                                               ; preds = %33
  br label %52

48:                                               ; preds = %33
  br label %49

49:                                               ; preds = %48
  %50 = load i32, i32* %6, align 4
  %51 = add nsw i32 %50, 1
  store i32 %51, i32* %6, align 4
  br label %29

52:                                               ; preds = %47, %29
  %53 = load i32, i32* %6, align 4
  %54 = load i32, i32* %9, align 4
  %55 = icmp eq i32 %53, %54
  br i1 %55, label %56, label %75

56:                                               ; preds = %52
  store i32 0, i32* %7, align 4
  br label %57

57:                                               ; preds = %67, %56
  %58 = load i32, i32* %7, align 4
  %59 = load i32, i32* %6, align 4
  %60 = icmp slt i32 %58, %59
  br i1 %60, label %61, label %70

61:                                               ; preds = %57
  %62 = load i32, i32* %5, align 4
  %63 = load i32, i32* %7, align 4
  %64 = add nsw i32 %62, %63
  %65 = sext i32 %64 to i64
  %66 = getelementptr inbounds [256 x i8], [256 x i8]* %2, i64 0, i64 %65
  store i8 64, i8* %66, align 1
  br label %67

67:                                               ; preds = %61
  %68 = load i32, i32* %7, align 4
  %69 = add nsw i32 %68, 1
  store i32 %69, i32* %7, align 4
  br label %57

70:                                               ; preds = %57
  %71 = load i32, i32* %6, align 4
  %72 = sub nsw i32 %71, 1
  %73 = load i32, i32* %5, align 4
  %74 = add nsw i32 %73, %72
  store i32 %74, i32* %5, align 4
  br label %79

75:                                               ; preds = %52
  br label %76

76:                                               ; preds = %75
  %77 = load i32, i32* %5, align 4
  %78 = add nsw i32 %77, 1
  store i32 %78, i32* %5, align 4
  br label %22

79:                                               ; preds = %70, %22
  store i32 0, i32* %5, align 4
  br label %80

80:                                               ; preds = %115, %79
  %81 = load i32, i32* %5, align 4
  %82 = load i32, i32* %8, align 4
  %83 = icmp slt i32 %81, %82
  br i1 %83, label %84, label %118

84:                                               ; preds = %80
  %85 = load i32, i32* %5, align 4
  %86 = sext i32 %85 to i64
  %87 = getelementptr inbounds [256 x i8], [256 x i8]* %2, i64 0, i64 %86
  %88 = load i8, i8* %87, align 1
  %89 = sext i8 %88 to i32
  %90 = icmp eq i32 %89, 64
  br i1 %90, label %91, label %107

91:                                               ; preds = %84
  br label %92

92:                                               ; preds = %99, %91
  %93 = load i32, i32* %5, align 4
  %94 = sext i32 %93 to i64
  %95 = getelementptr inbounds [256 x i8], [256 x i8]* %2, i64 0, i64 %94
  %96 = load i8, i8* %95, align 1
  %97 = sext i8 %96 to i32
  %98 = icmp eq i32 %97, 64
  br i1 %98, label %99, label %102

99:                                               ; preds = %92
  %100 = load i32, i32* %5, align 4
  %101 = add nsw i32 %100, 1
  store i32 %101, i32* %5, align 4
  br label %92

102:                                              ; preds = %92
  %103 = load i32, i32* %5, align 4
  %104 = add nsw i32 %103, -1
  store i32 %104, i32* %5, align 4
  %105 = getelementptr inbounds [256 x i8], [256 x i8]* %4, i64 0, i64 0
  %106 = call i32 (i8*, ...) @printf(i8* getelementptr inbounds ([3 x i8], [3 x i8]* @.str, i64 0, i64 0), i8* %105)
  br label %114

107:                                              ; preds = %84
  %108 = load i32, i32* %5, align 4
  %109 = sext i32 %108 to i64
  %110 = getelementptr inbounds [256 x i8], [256 x i8]* %2, i64 0, i64 %109
  %111 = load i8, i8* %110, align 1
  %112 = sext i8 %111 to i32
  %113 = call i32 (i8*, ...) @printf(i8* getelementptr inbounds ([3 x i8], [3 x i8]* @.str.1, i64 0, i64 0), i32 %112)
  br label %114

114:                                              ; preds = %107, %102
  br label %115

115:                                              ; preds = %114
  %116 = load i32, i32* %5, align 4
  %117 = add nsw i32 %116, 1
  store i32 %117, i32* %5, align 4
  br label %80

118:                                              ; preds = %80
  ret i32 0
}

declare dso_local i32 @gets(...) #1

; Function Attrs: nounwind readonly
declare dso_local i64 @strlen(i8*) #2

declare dso_local i32 @printf(i8*, ...) #1


!llvm.module.flags = !{!0}
!llvm.ident = !{!1}

!0 = !{i32 1, !"wchar_size", i32 4}
!1 = !{!"clang version 10.0.0-4ubuntu1 "}
