; ModuleID = 'source-C-CXX/6/71.c'
source_filename = "source-C-CXX/6/71.c"
target datalayout = "e-m:e-p270:32:32-p271:32:32-p272:64:64-i64:64-f80:128-n8:16:32:64-S128"
target triple = "x86_64-pc-linux-gnu"

@.str = private unnamed_addr constant [3 x i8] c"%s\00", align 1

; Function Attrs: nounwind sspstrong uwtable
define dso_local i32 @main() local_unnamed_addr #0 {
  %1 = alloca [256 x i8], align 16
  %2 = alloca [256 x i8], align 16
  %3 = alloca [256 x i8], align 16
  %4 = getelementptr inbounds [256 x i8], [256 x i8]* %1, i64 0, i64 0
  call void @llvm.lifetime.start.p0i8(i64 256, i8* nonnull %4) #7
  %5 = getelementptr inbounds [256 x i8], [256 x i8]* %2, i64 0, i64 0
  call void @llvm.lifetime.start.p0i8(i64 256, i8* nonnull %5) #7
  %6 = getelementptr inbounds [256 x i8], [256 x i8]* %3, i64 0, i64 0
  call void @llvm.lifetime.start.p0i8(i64 256, i8* nonnull %6) #7
  %7 = call i32 (i8*, ...) bitcast (i32 (...)* @gets to i32 (i8*, ...)*)(i8* nonnull %4) #7
  %8 = call i32 (i8*, ...) bitcast (i32 (...)* @gets to i32 (i8*, ...)*)(i8* nonnull %5) #7
  %9 = call i32 (i8*, ...) bitcast (i32 (...)* @gets to i32 (i8*, ...)*)(i8* nonnull %6) #7
  %10 = call i64 @strlen(i8* noundef nonnull %4) #8
  %11 = trunc i64 %10 to i32
  %12 = call i64 @strlen(i8* noundef nonnull %5) #8
  %13 = trunc i64 %12 to i32
  %14 = icmp sge i32 %11, %13
  %15 = icmp sgt i32 %13, 0
  %16 = and i1 %14, %15
  br i1 %16, label %17, label %45

17:                                               ; preds = %0
  %18 = add i64 %10, 1
  %19 = sub i64 %18, %12
  %20 = and i64 %19, 4294967295
  %21 = and i64 %12, 4294967295
  br label %22

22:                                               ; preds = %17, %35
  %23 = phi i64 [ 0, %17 ], [ %36, %35 ]
  br label %24

24:                                               ; preds = %22, %38
  %25 = phi i64 [ 0, %22 ], [ %39, %38 ]
  %26 = add nuw nsw i64 %25, %23
  %27 = getelementptr inbounds [256 x i8], [256 x i8]* %1, i64 0, i64 %26
  %28 = load i8, i8* %27, align 1, !tbaa !5
  %29 = getelementptr inbounds [256 x i8], [256 x i8]* %2, i64 0, i64 %25
  %30 = load i8, i8* %29, align 1, !tbaa !5
  %31 = icmp eq i8 %28, %30
  br i1 %31, label %38, label %32

32:                                               ; preds = %24
  %33 = trunc i64 %25 to i32
  %34 = icmp eq i32 %33, %13
  br i1 %34, label %41, label %35

35:                                               ; preds = %32
  %36 = add nuw nsw i64 %23, 1
  %37 = icmp eq i64 %36, %20
  br i1 %37, label %45, label %22, !llvm.loop !8

38:                                               ; preds = %24
  %39 = add nuw nsw i64 %25, 1
  %40 = icmp eq i64 %39, %21
  br i1 %40, label %41, label %24, !llvm.loop !10

41:                                               ; preds = %32, %38
  %42 = and i64 %23, 4294967295
  %43 = getelementptr [256 x i8], [256 x i8]* %1, i64 0, i64 %42
  %44 = and i64 %12, 4294967295
  call void @llvm.memset.p0i8.i64(i8* align 1 %43, i8 64, i64 %44, i1 false)
  br label %45

45:                                               ; preds = %35, %41, %0
  %46 = icmp sgt i32 %11, 0
  br i1 %46, label %47, label %70

47:                                               ; preds = %45, %66
  %48 = phi i32 [ %68, %66 ], [ 0, %45 ]
  %49 = sext i32 %48 to i64
  %50 = getelementptr inbounds [256 x i8], [256 x i8]* %1, i64 0, i64 %49
  %51 = load i8, i8* %50, align 1, !tbaa !5
  %52 = icmp eq i8 %51, 64
  br i1 %52, label %53, label %63

53:                                               ; preds = %47, %53
  %54 = phi i64 [ %55, %53 ], [ %49, %47 ]
  %55 = add i64 %54, 1
  %56 = getelementptr inbounds [256 x i8], [256 x i8]* %1, i64 0, i64 %55
  %57 = load i8, i8* %56, align 1, !tbaa !5
  %58 = icmp eq i8 %57, 64
  br i1 %58, label %53, label %59, !llvm.loop !11

59:                                               ; preds = %53
  %60 = trunc i64 %55 to i32
  %61 = add nsw i32 %60, -1
  %62 = call i32 (i8*, ...) @printf(i8* nonnull dereferenceable(1) getelementptr inbounds ([3 x i8], [3 x i8]* @.str, i64 0, i64 0), i8* nonnull %6)
  br label %66

63:                                               ; preds = %47
  %64 = sext i8 %51 to i32
  %65 = call i32 @putchar(i32 %64)
  br label %66

66:                                               ; preds = %59, %63
  %67 = phi i32 [ %61, %59 ], [ %48, %63 ]
  %68 = add nsw i32 %67, 1
  %69 = icmp slt i32 %68, %11
  br i1 %69, label %47, label %70, !llvm.loop !12

70:                                               ; preds = %66, %45
  call void @llvm.lifetime.end.p0i8(i64 256, i8* nonnull %6) #7
  call void @llvm.lifetime.end.p0i8(i64 256, i8* nonnull %5) #7
  call void @llvm.lifetime.end.p0i8(i64 256, i8* nonnull %4) #7
  ret i32 0
}

; Function Attrs: argmemonly mustprogress nofree nosync nounwind willreturn
declare void @llvm.lifetime.start.p0i8(i64 immarg, i8* nocapture) #1

declare i32 @gets(...) local_unnamed_addr #2

; Function Attrs: argmemonly mustprogress nofree nounwind readonly willreturn
declare i64 @strlen(i8* nocapture) local_unnamed_addr #3

; Function Attrs: nofree nounwind
declare noundef i32 @printf(i8* nocapture noundef readonly, ...) local_unnamed_addr #4

; Function Attrs: argmemonly mustprogress nofree nosync nounwind willreturn
declare void @llvm.lifetime.end.p0i8(i64 immarg, i8* nocapture) #1

; Function Attrs: nofree nounwind
declare noundef i32 @putchar(i32 noundef) local_unnamed_addr #5

; Function Attrs: argmemonly nofree nounwind willreturn writeonly
declare void @llvm.memset.p0i8.i64(i8* nocapture writeonly, i8, i64, i1 immarg) #6


!llvm.module.flags = !{!0, !1, !2, !3}
!llvm.ident = !{!4}

!0 = !{i32 1, !"wchar_size", i32 4}
!1 = !{i32 7, !"PIC Level", i32 2}
!2 = !{i32 7, !"PIE Level", i32 2}
!3 = !{i32 7, !"uwtable", i32 1}
!4 = !{!"clang version 13.0.0"}
!5 = !{!6, !6, i64 0}
!6 = !{!"omnipotent char", !7, i64 0}
!7 = !{!"Simple C/C++ TBAA"}
!8 = distinct !{!8, !9}
!9 = !{!"llvm.loop.mustprogress"}
!10 = distinct !{!10, !9}
!11 = distinct !{!11, !9}
!12 = distinct !{!12, !9}
